target datalayout = "e-m:e-p270:32:32-p271:32:32-p272:64:64-i64:64-i128:128-f80:128-n8:16:32:64-S128"
target triple = "x86_64-pc-linux-gnu"

%struct.Abc_Ntk_t_ = type { i32, i32, ptr, ptr, ptr, ptr, ptr, ptr, ptr, ptr, ptr, ptr, ptr, [11 x i32], i32, i32, i32, i32, ptr, i32, ptr, ptr, i32, i32, i32, double, i32, %struct.Vec_Int_t_, ptr, ptr, ptr, ptr, ptr, float, i32, ptr, ptr, ptr, ptr, ptr, ptr, ptr, ptr, ptr, ptr, ptr, ptr, ptr, ptr, ptr, ptr, ptr, ptr, ptr, ptr, ptr }
%struct.Vec_Int_t_ = type { i32, i32, ptr }

@.str.1 = private unnamed_addr constant [46 x i8] c"Abc_NtkStrash: The network check has failed.\0A\00", align 1
@.str.5 = private unnamed_addr constant [32 x i8] c"Converting to AIGs has failed.\0A\00", align 1

; Function Attrs: nounwind uwtable
define internal i32 @Abc_NtkIsStrash(ptr noundef %0) #0 {
  %2 = alloca ptr, align 8
  store ptr %0, ptr %2, align 8
  %3 = load ptr, ptr %2, align 8
  %4 = getelementptr inbounds %struct.Abc_Ntk_t_, ptr %3, i32 0, i32 0
  %5 = load i32, ptr %4, align 8
  %6 = icmp eq i32 %5, 3
  %7 = zext i1 %6 to i32
  ret i32 %7
}

; Function Attrs: nounwind uwtable
define ptr @Abc_NtkStrash(ptr noundef %0, i32 noundef %1, i32 noundef %2, i32 noundef %3) #0 {
  %5 = alloca ptr, align 8
  %6 = alloca ptr, align 8
  %7 = alloca i32, align 4
  %8 = alloca i32, align 4
  %9 = alloca i32, align 4
  %10 = alloca ptr, align 8
  %11 = alloca i32, align 4
  store ptr %0, ptr %6, align 8
  store i32 %1, ptr %7, align 4
  store i32 %2, ptr %8, align 4
  store i32 %3, ptr %9, align 4
  %12 = load ptr, ptr %6, align 8
  %13 = call i32 @Abc_NtkIsStrash(ptr noundef %12)
  %14 = icmp ne i32 %13, 0
  br i1 %14, label %15, label %19

15:                                               ; preds = %4
  %16 = load ptr, ptr %6, align 8
  %17 = load i32, ptr %8, align 4
  %18 = call ptr @Abc_NtkRestrash(ptr noundef %16, i32 noundef %17)
  store ptr %18, ptr %5, align 8
  br label %75

19:                                               ; preds = %4
  %20 = load ptr, ptr %6, align 8
  %21 = call i32 @Abc_NtkToAig(ptr noundef %20)
  %22 = icmp ne i32 %21, 0
  br i1 %22, label %25, label %23

23:                                               ; preds = %19
  %24 = call i32 (ptr, ...) @printf(ptr noundef @.str.5)
  store ptr null, ptr %5, align 8
  br label %75

25:                                               ; preds = %19
  %26 = load ptr, ptr %6, align 8
  %27 = call ptr @Abc_NtkStartFrom(ptr noundef %26, i32 noundef 3, i32 noundef 3)
  store ptr %27, ptr %10, align 8
  %28 = load ptr, ptr %6, align 8
  %29 = load ptr, ptr %10, align 8
  %30 = load i32, ptr %7, align 4
  %31 = load i32, ptr %9, align 4
  call void @Abc_NtkStrashPerform(ptr noundef %28, ptr noundef %29, i32 noundef %30, i32 noundef %31)
  %32 = load ptr, ptr %6, align 8
  %33 = load ptr, ptr %10, align 8
  call void @Abc_NtkFinalize(ptr noundef %32, ptr noundef %33)
  %34 = load ptr, ptr %6, align 8
  %35 = getelementptr inbounds %struct.Abc_Ntk_t_, ptr %34, i32 0, i32 54
  %36 = load ptr, ptr %35, align 8
  %37 = icmp ne ptr %36, null
  br i1 %37, label %38, label %41

38:                                               ; preds = %25
  %39 = load ptr, ptr %6, align 8
  %40 = load ptr, ptr %10, align 8
  call void @Abc_NtkTransferNameIds(ptr noundef %39, ptr noundef %40)
  br label %41

41:                                               ; preds = %38, %25
  %42 = load i32, ptr %8, align 4
  %43 = icmp ne i32 %42, 0
  br i1 %43, label %44, label %49

44:                                               ; preds = %41
  %45 = load ptr, ptr %10, align 8
  %46 = getelementptr inbounds %struct.Abc_Ntk_t_, ptr %45, i32 0, i32 30
  %47 = load ptr, ptr %46, align 8
  %48 = call i32 @Abc_AigCleanup(ptr noundef %47)
  br label %50

49:                                               ; preds = %41
  br label %50

50:                                               ; preds = %49, %44
  %51 = phi i32 [ %48, %44 ], [ 0, %49 ]
  store i32 %51, ptr %11, align 4
  %52 = load ptr, ptr %6, align 8
  %53 = getelementptr inbounds %struct.Abc_Ntk_t_, ptr %52, i32 0, i32 40
  %54 = load ptr, ptr %53, align 8
  %55 = icmp ne ptr %54, null
  br i1 %55, label %56, label %66

56:                                               ; preds = %50
  %57 = load ptr, ptr %6, align 8
  %58 = getelementptr inbounds %struct.Abc_Ntk_t_, ptr %57, i32 0, i32 40
  %59 = load ptr, ptr %58, align 8
  %60 = load i32, ptr %7, align 4
  %61 = load i32, ptr %8, align 4
  %62 = load i32, ptr %9, align 4
  %63 = call ptr @Abc_NtkStrash(ptr noundef %59, i32 noundef %60, i32 noundef %61, i32 noundef %62)
  %64 = load ptr, ptr %10, align 8
  %65 = getelementptr inbounds %struct.Abc_Ntk_t_, ptr %64, i32 0, i32 40
  store ptr %63, ptr %65, align 8
  br label %66

66:                                               ; preds = %56, %50
  %67 = load ptr, ptr %10, align 8
  %68 = call i32 @Abc_NtkCheck(ptr noundef %67)
  %69 = icmp ne i32 %68, 0
  br i1 %69, label %73, label %70

70:                                               ; preds = %66
  %71 = call i32 (ptr, ...) @printf(ptr noundef @.str.1)
  %72 = load ptr, ptr %10, align 8
  call void @Abc_NtkDelete(ptr noundef %72)
  store ptr null, ptr %5, align 8
  br label %75

73:                                               ; preds = %66
  %74 = load ptr, ptr %10, align 8
  store ptr %74, ptr %5, align 8
  br label %75

75:                                               ; preds = %73, %70, %23, %15
  %76 = load ptr, ptr %5, align 8
  ret ptr %76
}