; Function Attrs: nounwind uwtable
define ptr @Abc_NtkStrash(ptr noundef %0, i32 noundef %1, i32 noundef %2, i32 noundef %3) local_unnamed_addr #0 {
  %.val = load i32, ptr %0, align 8
  %.not = icmp eq i32 %.val, 3
  br i1 %.not, label %5, label %7

5:                                                ; preds = %4
  %6 = tail call ptr @Abc_NtkRestrash(ptr noundef nonnull %0, i32 noundef %2)
  br label %29

7:                                                ; preds = %4
  %8 = tail call i32 @Abc_NtkToAig(ptr noundef nonnull %0) #11
  %.not26 = icmp eq i32 %8, 0
  br i1 %.not26, label %9, label %10

9:                                                ; preds = %7
  %puts = tail call i32 @puts(ptr nonnull dereferenceable(1) @str.8)
  br label %29

10:                                               ; preds = %7
  %11 = tail call ptr @Abc_NtkStartFrom(ptr noundef nonnull %0, i32 noundef 3, i32 noundef 3) #11
  tail call fastcc void @Abc_NtkStrashPerform(ptr noundef nonnull %0, ptr noundef %11, i32 noundef %1, i32 noundef %3)
  tail call void @Abc_NtkFinalize(ptr noundef nonnull %0, ptr noundef %11) #11
  %12 = getelementptr inbounds nuw i8, ptr %0, i64 440
  %13 = load ptr, ptr %12, align 8
  %.not27 = icmp eq ptr %13, null
  br i1 %.not27, label %15, label %14

14:                                               ; preds = %10
  tail call void @Abc_NtkTransferNameIds(ptr noundef nonnull %0, ptr noundef %11) #11
  br label %15

15:                                               ; preds = %14, %10
  %.not28 = icmp eq i32 %2, 0
  br i1 %.not28, label %20, label %16

16:                                               ; preds = %15
  %17 = getelementptr inbounds nuw i8, ptr %11, i64 256
  %18 = load ptr, ptr %17, align 8
  %19 = tail call i32 @Abc_AigCleanup(ptr noundef %18) #11
  br label %20

20:                                               ; preds = %15, %16
  %21 = getelementptr inbounds nuw i8, ptr %0, i64 328
  %22 = load ptr, ptr %21, align 8
  %.not29 = icmp eq ptr %22, null
  br i1 %.not29, label %26, label %23

23:                                               ; preds = %20
  %24 = tail call ptr @Abc_NtkStrash(ptr noundef nonnull %22, i32 noundef %1, i32 noundef %2, i32 noundef %3)
  %25 = getelementptr inbounds nuw i8, ptr %11, i64 328
  store ptr %24, ptr %25, align 8
  br label %26

26:                                               ; preds = %23, %20
  %27 = tail call i32 @Abc_NtkCheck(ptr noundef %11) #11
  %.not30 = icmp eq i32 %27, 0
  br i1 %.not30, label %28, label %29

28:                                               ; preds = %26
  %puts31 = tail call i32 @puts(ptr nonnull dereferenceable(1) @str.13)
  tail call void @Abc_NtkDelete(ptr noundef %11) #11
  br label %29

29:                                               ; preds = %26, %28, %9, %5
  %.0 = phi ptr [ %6, %5 ], [ null, %28 ], [ null, %9 ], [ %11, %26 ]
  ret ptr %.0
}